target datalayout = "e-m:e-p270:32:32-p271:32:32-p272:64:64-i64:64-i128:128-f80:128-n8:16:32:64-S128"
target triple = "x86_64-pc-linux-gnu"

%"struct.std::atomic" = type { %"struct.std::__atomic_base" }
%"struct.std::__atomic_base" = type { ptr }
%"struct.folly::detail::(anonymous namespace)::thread_is_dying_global" = type { i32 }
%"struct.folly::detail::StaticSingletonManagerWithRtti::Arg" = type { %"struct.std::atomic", ptr, ptr, ptr }

; Function Attrs: noinline noreturn nounwind uwtable
define linkonce_odr hidden void @__clang_call_terminate(ptr noundef %0) #8 comdat {
  %2 = call ptr @__cxa_begin_catch(ptr %0) #17
  call void @_ZSt9terminatev() #18
  unreachable
}

; Function Attrs: mustprogress nounwind uwtable
define linkonce_odr noundef i32 @_ZStanSt12memory_orderSt23__memory_order_modifier(i32 noundef %0, i32 noundef %1) #5 comdat {
  %3 = alloca i32, align 4
  %4 = alloca i32, align 4
  store i32 %0, ptr %3, align 4, !tbaa !20
  store i32 %1, ptr %4, align 4, !tbaa !24
  %5 = load i32, ptr %3, align 4, !tbaa !20
  %6 = load i32, ptr %4, align 4, !tbaa !24
  %7 = and i32 %5, %6
  ret i32 %7
}

; Function Attrs: alwaysinline mustprogress nounwind uwtable
define linkonce_odr noundef ptr @_ZNKSt13__atomic_baseIPvE4loadESt12memory_order(ptr noundef nonnull align 8 dereferenceable(8) %0, i32 noundef %1) #4 comdat align 2 personality ptr @__gxx_personality_v0 {
  %3 = alloca ptr, align 8
  %4 = alloca i32, align 4
  %5 = alloca i32, align 4
  %6 = alloca ptr, align 8
  store ptr %0, ptr %3, align 8, !tbaa !22
  store i32 %1, ptr %4, align 4, !tbaa !20
  %7 = load ptr, ptr %3, align 8
  call void @llvm.lifetime.start.p0(i64 4, ptr %5) #17
  %8 = load i32, ptr %4, align 4, !tbaa !20
  %9 = invoke noundef i32 @_ZStanSt12memory_orderSt23__memory_order_modifier(i32 noundef %8, i32 noundef 65535)
          to label %10 unwind label %27

10:                                               ; preds = %2
  store i32 %9, ptr %5, align 4, !tbaa !20
  br label %11

11:                                               ; preds = %10
  br label %12

12:                                               ; preds = %11
  br label %13

13:                                               ; preds = %12
  br label %14

14:                                               ; preds = %13
  br label %15

15:                                               ; preds = %14
  br label %16

16:                                               ; preds = %15
  %17 = getelementptr inbounds nuw %"struct.std::__atomic_base", ptr %7, i32 0, i32 0
  %18 = load i32, ptr %4, align 4, !tbaa !20
  switch i32 %18, label %19 [
    i32 1, label %21
    i32 2, label %21
    i32 5, label %23
  ]

19:                                               ; preds = %16
  %20 = load atomic i64, ptr %17 monotonic, align 8
  store i64 %20, ptr %6, align 8
  br label %25

21:                                               ; preds = %16, %16
  %22 = load atomic i64, ptr %17 acquire, align 8
  store i64 %22, ptr %6, align 8
  br label %25

23:                                               ; preds = %16
  %24 = load atomic i64, ptr %17 seq_cst, align 8
  store i64 %24, ptr %6, align 8
  br label %25

25:                                               ; preds = %23, %21, %19
  %26 = load ptr, ptr %6, align 8, !tbaa !17
  call void @llvm.lifetime.end.p0(i64 4, ptr %5) #17
  ret ptr %26

27:                                               ; preds = %2
  %28 = landingpad { ptr, i32 }
          catch ptr null
  %29 = extractvalue { ptr, i32 } %28, 0
  call void @__clang_call_terminate(ptr %29) #18
  unreachable
}

; Function Attrs: mustprogress nounwind uwtable
define linkonce_odr noundef ptr @_ZNKSt6atomicIPvE4loadESt12memory_order(ptr noundef nonnull align 8 dereferenceable(8) %0, i32 noundef %1) #5 comdat align 2 {
  %3 = alloca ptr, align 8
  %4 = alloca i32, align 4
  store ptr %0, ptr %3, align 8, !tbaa !18
  store i32 %1, ptr %4, align 4, !tbaa !20
  %5 = load ptr, ptr %3, align 8
  %6 = getelementptr inbounds nuw %"struct.std::atomic", ptr %5, i32 0, i32 0
  %7 = load i32, ptr %4, align 4, !tbaa !20
  %8 = call noundef ptr @_ZNKSt13__atomic_baseIPvE4loadESt12memory_order(ptr noundef nonnull align 8 dereferenceable(8) %6, i32 noundef %7) #17
  ret ptr %8
}

; Function Attrs: alwaysinline mustprogress uwtable
define internal noundef nonnull align 4 dereferenceable(4) ptr @_ZN5folly6detail30StaticSingletonManagerWithRtti6createINS0_12_GLOBAL__N_122thread_is_dying_globalEJELb0EEERT_RNS1_9ArgCreateIXT1_EEE(ptr noundef nonnull align 8 dereferenceable(32) %0) #2 align 2 {
  %2 = alloca ptr, align 8
  %3 = alloca ptr, align 8
  %4 = alloca ptr, align 8
  store ptr %0, ptr %2, align 8, !tbaa !15
  call void @llvm.lifetime.start.p0(i64 8, ptr %3) #17
  %5 = load ptr, ptr %2, align 8, !tbaa !15
  %6 = getelementptr inbounds nuw %"struct.folly::detail::StaticSingletonManagerWithRtti::Arg", ptr %5, i32 0, i32 0
  %7 = call noundef ptr @_ZNKSt6atomicIPvE4loadESt12memory_order(ptr noundef nonnull align 8 dereferenceable(8) %6, i32 noundef 2) #17
  store ptr %7, ptr %3, align 8, !tbaa !17
  call void @llvm.lifetime.start.p0(i64 8, ptr %4) #17
  %8 = load ptr, ptr %3, align 8, !tbaa !17
  %9 = icmp ne ptr %8, null
  %10 = xor i1 %9, true
  %11 = xor i1 %10, true
  %12 = zext i1 %11 to i64
  %13 = call i64 @llvm.expect.i64(i64 %12, i64 1)
  %14 = icmp ne i64 %13, 0
  br i1 %14, label %15, label %17

15:                                               ; preds = %1
  %16 = load ptr, ptr %3, align 8, !tbaa !17
  br label %20

17:                                               ; preds = %1
  %18 = load ptr, ptr %2, align 8, !tbaa !15
  %19 = call noundef ptr @_ZN5folly6detail30StaticSingletonManagerWithRtti7create_ILb0EEEPvRNS1_3ArgE(ptr noundef nonnull align 8 dereferenceable(32) %18)
  br label %20

20:                                               ; preds = %17, %15
  %21 = phi ptr [ %16, %15 ], [ %19, %17 ]
  store ptr %21, ptr %4, align 8, !tbaa !17
  %22 = load ptr, ptr %4, align 8, !tbaa !17
  call void @llvm.lifetime.end.p0(i64 8, ptr %4) #17
  call void @llvm.lifetime.end.p0(i64 8, ptr %3) #17
  ret ptr %22
}

; Function Attrs: alwaysinline mustprogress nounwind uwtable
define internal noundef nonnull align 8 dereferenceable(32) ptr @_ZN5folly6detail30StaticSingletonManagerWithRtti6globalINS0_12_GLOBAL__N_122thread_is_dying_globalEvNS1_9ArgCreateILb0EEEEERT1_v() #4 align 2 {
  ret ptr @_ZZN5folly6detail30StaticSingletonManagerWithRtti6globalINS0_12_GLOBAL__N_122thread_is_dying_globalEvNS1_9ArgCreateILb0EEEEERT1_vE3arg
}

; Function Attrs: alwaysinline mustprogress uwtable
define internal noundef nonnull align 4 dereferenceable(4) ptr @_ZN5folly6detail30StaticSingletonManagerWithRtti6createINS0_12_GLOBAL__N_122thread_is_dying_globalEvEERT_v() #2 align 2 {
  %1 = call noundef nonnull align 8 dereferenceable(32) ptr @_ZN5folly6detail30StaticSingletonManagerWithRtti6globalINS0_12_GLOBAL__N_122thread_is_dying_globalEvNS1_9ArgCreateILb0EEEEERT1_v()
  %2 = call noundef nonnull align 4 dereferenceable(4) ptr @_ZN5folly6detail30StaticSingletonManagerWithRtti6createINS0_12_GLOBAL__N_122thread_is_dying_globalEJELb0EEERT_RNS1_9ArgCreateIXT1_EEE(ptr noundef nonnull align 8 dereferenceable(32) %1)
  ret ptr %2
}

; Function Attrs: alwaysinline mustprogress uwtable
define internal noundef nonnull align 4 dereferenceable(4) ptr @_ZN5folly6detail12createGlobalINS0_12_GLOBAL__N_122thread_is_dying_globalEvEERT_v() #2 {
  %1 = call noundef nonnull align 4 dereferenceable(4) ptr @_ZN5folly6detail30StaticSingletonManagerWithRtti6createINS0_12_GLOBAL__N_122thread_is_dying_globalEvEERT_v()
  ret ptr %1
}

; Function Attrs: mustprogress uwtable
define noundef zeroext i1 @_ZN5folly6detail15thread_is_dyingEv() #0 {
  %1 = alloca ptr, align 8
  call void @llvm.lifetime.start.p0(i64 8, ptr %1) #17
  %2 = call noundef nonnull align 4 dereferenceable(4) ptr @_ZN5folly6detail12createGlobalINS0_12_GLOBAL__N_122thread_is_dying_globalEvEERT_v()
  store ptr %2, ptr %1, align 8, !tbaa !7
  %3 = load ptr, ptr %1, align 8, !tbaa !7
  %4 = getelementptr inbounds nuw %"struct.folly::detail::(anonymous namespace)::thread_is_dying_global", ptr %3, i32 0, i32 0
  %5 = load i32, ptr %4, align 4, !tbaa !12
  %6 = call ptr @pthread_getspecific(i32 noundef %5) #17
  %7 = icmp ne ptr %6, null
  %8 = xor i1 %7, true
  %9 = xor i1 %8, true
  call void @llvm.lifetime.end.p0(i64 8, ptr %1) #17
  ret i1 %9
}